target datalayout = "e-m:e-p270:32:32-p271:32:32-p272:64:64-i64:64-i128:128-f80:128-n8:16:32:64-S128"
target triple = "x86_64-pc-linux-gnu"

%class.anon = type { i8 }
%struct.GCheader = type { i8, i8, i8 }
%struct.lua_State = type { i8, i8, i8, i8, i8, i8, i8, ptr, ptr, ptr, ptr, ptr, ptr, ptr, ptr, i32, i32, i16, i16, i32, ptr, ptr, ptr, ptr, ptr }
%struct.CallInfo = type { ptr, ptr, ptr, ptr, i32, i32 }
%struct.lua_TValue = type { %union.Value, [1 x i32], i32 }
%union.Value = type { ptr }
%struct.Closure = type { i8, i8, i8, i8, i8, i8, i8, ptr, ptr, %union.anon.2 }
%union.anon.2 = type { %struct.anon }
%struct.anon = type { ptr, ptr, ptr, [1 x %struct.lua_TValue] }
%struct.anon.3 = type { ptr, [1 x %struct.lua_TValue] }

; Function Attrs: inlinehint mustprogress nounwind uwtable
define internal noundef zeroext i1 @"_ZZN4Luau7CodeGen9onDisableEP9lua_StateP5ProtoENK3$_0clEPvP8lua_PageP8GCObject"(ptr noundef nonnull align 1 dereferenceable(1) %0, ptr noundef %1, ptr noundef %2, ptr noundef %3) #5 align 2 {
  %5 = alloca i1, align 1
  %6 = alloca ptr, align 8
  %7 = alloca ptr, align 8
  %8 = alloca ptr, align 8
  %9 = alloca ptr, align 8
  %10 = alloca ptr, align 8
  %11 = alloca i32, align 4
  %12 = alloca ptr, align 8
  %13 = alloca ptr, align 8
  %14 = alloca ptr, align 8
  store ptr %0, ptr %6, align 8, !tbaa !29
  store ptr %1, ptr %7, align 8, !tbaa !29
  store ptr %2, ptr %8, align 8, !tbaa !54
  store ptr %3, ptr %9, align 8, !tbaa !56
  call void @llvm.lifetime.start.p0(i64 8, ptr %10) #14
  %15 = load ptr, ptr %7, align 8, !tbaa !29
  store ptr %15, ptr %10, align 8, !tbaa !38
  %16 = load ptr, ptr %9, align 8, !tbaa !56
  %17 = getelementptr inbounds nuw %struct.GCheader, ptr %16, i32 0, i32 0
  %18 = load i8, ptr %17, align 8, !tbaa !57
  %19 = zext i8 %18 to i32
  %20 = icmp ne i32 %19, 9
  br i1 %20, label %21, label %22

21:                                               ; preds = %4
  store i1 false, ptr %5, align 1
  store i32 1, ptr %11, align 4
  br label %73

22:                                               ; preds = %4
  call void @llvm.lifetime.start.p0(i64 8, ptr %12) #14
  %23 = load ptr, ptr %9, align 8, !tbaa !56
  store ptr %23, ptr %12, align 8, !tbaa !36
  call void @llvm.lifetime.start.p0(i64 8, ptr %13) #14
  %24 = load ptr, ptr %12, align 8, !tbaa !36
  %25 = getelementptr inbounds nuw %struct.lua_State, ptr %24, i32 0, i32 10
  %26 = load ptr, ptr %25, align 8, !tbaa !58
  store ptr %26, ptr %13, align 8, !tbaa !65
  br label %27

27:                                               ; preds = %69, %22
  %28 = load ptr, ptr %13, align 8, !tbaa !65
  %29 = load ptr, ptr %12, align 8, !tbaa !36
  %30 = getelementptr inbounds nuw %struct.lua_State, ptr %29, i32 0, i32 14
  %31 = load ptr, ptr %30, align 8, !tbaa !66
  %32 = icmp ugt ptr %28, %31
  br i1 %32, label %34, label %33

33:                                               ; preds = %27
  store i32 2, ptr %11, align 4
  call void @llvm.lifetime.end.p0(i64 8, ptr %13) #14
  br label %72

34:                                               ; preds = %27
  %35 = load ptr, ptr %13, align 8, !tbaa !65
  %36 = getelementptr inbounds nuw %struct.CallInfo, ptr %35, i32 0, i32 1
  %37 = load ptr, ptr %36, align 8, !tbaa !67
  %38 = getelementptr inbounds nuw %struct.lua_TValue, ptr %37, i32 0, i32 2
  %39 = load i32, ptr %38, align 4, !tbaa !69
  %40 = icmp eq i32 %39, 7
  br i1 %40, label %41, label %68

41:                                               ; preds = %34
  %42 = load ptr, ptr %13, align 8, !tbaa !65
  %43 = getelementptr inbounds nuw %struct.CallInfo, ptr %42, i32 0, i32 1
  %44 = load ptr, ptr %43, align 8, !tbaa !67
  %45 = getelementptr inbounds nuw %struct.lua_TValue, ptr %44, i32 0, i32 0
  %46 = load ptr, ptr %45, align 8, !tbaa !57
  %47 = getelementptr inbounds nuw %struct.Closure, ptr %46, i32 0, i32 3
  %48 = load i8, ptr %47, align 1, !tbaa !71
  %49 = icmp ne i8 %48, 0
  br i1 %49, label %68, label %50

50:                                               ; preds = %41
  call void @llvm.lifetime.start.p0(i64 8, ptr %14) #14
  %51 = load ptr, ptr %13, align 8, !tbaa !65
  %52 = getelementptr inbounds nuw %struct.CallInfo, ptr %51, i32 0, i32 1
  %53 = load ptr, ptr %52, align 8, !tbaa !67
  %54 = getelementptr inbounds nuw %struct.lua_TValue, ptr %53, i32 0, i32 0
  %55 = load ptr, ptr %54, align 8, !tbaa !57
  %56 = getelementptr inbounds nuw %struct.Closure, ptr %55, i32 0, i32 9
  %57 = getelementptr inbounds nuw %struct.anon.3, ptr %56, i32 0, i32 0
  %58 = load ptr, ptr %57, align 8, !tbaa !57
  store ptr %58, ptr %14, align 8, !tbaa !38
  %59 = load ptr, ptr %14, align 8, !tbaa !38
  %60 = load ptr, ptr %10, align 8, !tbaa !38
  %61 = icmp eq ptr %59, %60
  br i1 %61, label %62, label %67

62:                                               ; preds = %50
  %63 = load ptr, ptr %13, align 8, !tbaa !65
  %64 = getelementptr inbounds nuw %struct.CallInfo, ptr %63, i32 0, i32 5
  %65 = load i32, ptr %64, align 4, !tbaa !73
  %66 = and i32 %65, -5
  store i32 %66, ptr %64, align 4, !tbaa !73
  br label %67

67:                                               ; preds = %62, %50
  call void @llvm.lifetime.end.p0(i64 8, ptr %14) #14
  br label %68

68:                                               ; preds = %67, %41, %34
  br label %69

69:                                               ; preds = %68
  %70 = load ptr, ptr %13, align 8, !tbaa !65
  %71 = getelementptr inbounds %struct.CallInfo, ptr %70, i32 -1
  store ptr %71, ptr %13, align 8, !tbaa !65
  br label %27, !llvm.loop !74

72:                                               ; preds = %33
  store i1 false, ptr %5, align 1
  store i32 1, ptr %11, align 4
  call void @llvm.lifetime.end.p0(i64 8, ptr %12) #14
  br label %73

73:                                               ; preds = %72, %21
  call void @llvm.lifetime.end.p0(i64 8, ptr %10) #14
  %74 = load i1, ptr %5, align 1
  ret i1 %74
}

; Function Attrs: inlinehint mustprogress uwtable
define internal noundef zeroext i1 @"_ZZN4Luau7CodeGen9onDisableEP9lua_StateP5ProtoEN3$_08__invokeEPvP8lua_PageP8GCObject"(ptr noundef %0, ptr noundef %1, ptr noundef %2) #7 align 2 {
  %4 = alloca ptr, align 8
  %5 = alloca ptr, align 8
  %6 = alloca ptr, align 8
  %7 = alloca %class.anon, align 1
  store ptr %0, ptr %4, align 8, !tbaa !29
  store ptr %1, ptr %5, align 8, !tbaa !54
  store ptr %2, ptr %6, align 8, !tbaa !56
  %8 = load ptr, ptr %4, align 8, !tbaa !29
  %9 = load ptr, ptr %5, align 8, !tbaa !54
  %10 = load ptr, ptr %6, align 8, !tbaa !56
  %11 = call noundef zeroext i1 @"_ZZN4Luau7CodeGen9onDisableEP9lua_StateP5ProtoENK3$_0clEPvP8lua_PageP8GCObject"(ptr noundef nonnull align 1 dereferenceable(1) %7, ptr noundef %8, ptr noundef %9, ptr noundef %10)
  ret i1 %11
}