; Function Attrs: inlinehint mustprogress nofree norecurse nosync nounwind memory(readwrite, inaccessiblemem: none) uwtable
define internal noundef zeroext i1 @"_ZZN4Luau7CodeGen9onDisableEP9lua_StateP5ProtoEN3$_08__invokeEPvP8lua_PageP8GCObject"(ptr noundef readnone %0, ptr readnone captures(none) %1, ptr noundef readonly captures(none) %2) #3 align 2 {
  %4 = load i8, ptr %2, align 8, !tbaa !15
  %.not.i = icmp eq i8 %4, 9
  br i1 %.not.i, label %5, label %"_ZZN4Luau7CodeGen9onDisableEP9lua_StateP5ProtoENK3$_0clEPvP8lua_PageP8GCObject.exit"

5:                                                ; preds = %3
  %6 = getelementptr inbounds nuw i8, ptr %2, i64 32
  %7 = load ptr, ptr %6, align 8, !tbaa !32
  %8 = getelementptr inbounds nuw i8, ptr %2, i64 64
  %9 = load ptr, ptr %8, align 8, !tbaa !40
  %10 = icmp ugt ptr %7, %9
  br i1 %10, label %.lr.ph.i, label %"_ZZN4Luau7CodeGen9onDisableEP9lua_StateP5ProtoENK3$_0clEPvP8lua_PageP8GCObject.exit"

.lr.ph.i:                                         ; preds = %5, %28
  %.0141.i = phi ptr [ %29, %28 ], [ %7, %5 ]
  %11 = getelementptr inbounds nuw i8, ptr %.0141.i, i64 8
  %12 = load ptr, ptr %11, align 8, !tbaa !41
  %13 = getelementptr inbounds nuw i8, ptr %12, i64 12
  %14 = load i32, ptr %13, align 4, !tbaa !43
  %15 = icmp eq i32 %14, 7
  br i1 %15, label %16, label %28

16:                                               ; preds = %.lr.ph.i
  %17 = load ptr, ptr %12, align 8, !tbaa !15
  %18 = getelementptr inbounds nuw i8, ptr %17, i64 3
  %19 = load i8, ptr %18, align 1, !tbaa !45
  %.not15.i = icmp eq i8 %19, 0
  br i1 %.not15.i, label %20, label %28

20:                                               ; preds = %16
  %21 = getelementptr inbounds nuw i8, ptr %17, i64 24
  %22 = load ptr, ptr %21, align 8, !tbaa !15
  %23 = icmp eq ptr %22, %0
  br i1 %23, label %24, label %28

24:                                               ; preds = %20
  %25 = getelementptr inbounds nuw i8, ptr %.0141.i, i64 36
  %26 = load i32, ptr %25, align 4, !tbaa !47
  %27 = and i32 %26, -5
  store i32 %27, ptr %25, align 4, !tbaa !47
  br label %28

28:                                               ; preds = %24, %20, %16, %.lr.ph.i
  %29 = getelementptr inbounds i8, ptr %.0141.i, i64 -40
  %30 = icmp ugt ptr %29, %9
  br i1 %30, label %.lr.ph.i, label %"_ZZN4Luau7CodeGen9onDisableEP9lua_StateP5ProtoENK3$_0clEPvP8lua_PageP8GCObject.exit", !llvm.loop !48

"_ZZN4Luau7CodeGen9onDisableEP9lua_StateP5ProtoENK3$_0clEPvP8lua_PageP8GCObject.exit": ; preds = %28, %3, %5
  ret i1 false
}